target datalayout = "e-m:e-p270:32:32-p271:32:32-p272:64:64-i64:64-i128:128-f80:128-n8:16:32:64-S128"
target triple = "x86_64-pc-linux-gnu"

%struct.expert_field = type { i32, i32 }

@hf_openflow_v6_bundle_prop_type = internal global i32 0, align 4
@hf_openflow_v6_bundle_prop_length = internal global i32 0, align 4
@hf_openflow_v6_bundle_prop_experimenter_experimenter = internal global i32 0, align 4
@hf_openflow_v6_bundle_prop_experimenter_exp_type = internal global i32 0, align 4
@hf_openflow_v6_time_seconds = internal global i32 0, align 4
@hf_openflow_v6_time_nanoseconds = internal global i32 0, align 4
@hf_openflow_v6_time_pad = internal global i32 0, align 4
@ett_openflow_v6_bundle_prop = internal global i32 0, align 4
@ei_openflow_v6_bundle_prop_undecoded = internal global %struct.expert_field zeroinitializer, align 4
@.str.1067 = private unnamed_addr constant [26 x i8] c"Unknown bundle prop body.\00", align 1
@ei_openflow_v6_length_too_short = internal global %struct.expert_field zeroinitializer, align 4
@.str.1647 = private unnamed_addr constant [12 x i8] c"Bundle prop\00", align 1
@.str.1648 = private unnamed_addr constant [31 x i8] c"Experimenter bundle prop body.\00", align 1

; Function Attrs: null_pointer_is_valid sspstrong uwtable
define internal i32 @dissect_openflow_time_v6(ptr noundef %0, ptr noundef %1, ptr noundef %2, i32 noundef %3, i16 noundef zeroext %4) #0 {
  %6 = alloca ptr, align 8
  %7 = alloca ptr, align 8
  %8 = alloca ptr, align 8
  %9 = alloca i32, align 4
  %10 = alloca i16, align 2
  store ptr %0, ptr %6, align 8
  store ptr %1, ptr %7, align 8
  store ptr %2, ptr %8, align 8
  store i32 %3, ptr %9, align 4
  store i16 %4, ptr %10, align 2
  %11 = load ptr, ptr %8, align 8
  %12 = load i32, ptr @hf_openflow_v6_time_seconds, align 4
  %13 = load ptr, ptr %6, align 8
  %14 = load i32, ptr %9, align 4
  %15 = call ptr @proto_tree_add_item(ptr noundef %11, i32 noundef %12, ptr noundef %13, i32 noundef %14, i32 noundef 8, i32 noundef 0)
  %16 = load i32, ptr %9, align 4
  %17 = add i32 %16, 8
  store i32 %17, ptr %9, align 4
  %18 = load ptr, ptr %8, align 8
  %19 = load i32, ptr @hf_openflow_v6_time_nanoseconds, align 4
  %20 = load ptr, ptr %6, align 8
  %21 = load i32, ptr %9, align 4
  %22 = call ptr @proto_tree_add_item(ptr noundef %18, i32 noundef %19, ptr noundef %20, i32 noundef %21, i32 noundef 4, i32 noundef 0)
  %23 = load i32, ptr %9, align 4
  %24 = add i32 %23, 4
  store i32 %24, ptr %9, align 4
  %25 = load ptr, ptr %8, align 8
  %26 = load i32, ptr @hf_openflow_v6_time_pad, align 4
  %27 = load ptr, ptr %6, align 8
  %28 = load i32, ptr %9, align 4
  %29 = call ptr @proto_tree_add_item(ptr noundef %25, i32 noundef %26, ptr noundef %27, i32 noundef %28, i32 noundef 4, i32 noundef 0)
  %30 = load i32, ptr %9, align 4
  %31 = add i32 %30, 4
  store i32 %31, ptr %9, align 4
  %32 = load i32, ptr %9, align 4
  ret i32 %32
}

; Function Attrs: null_pointer_is_valid sspstrong uwtable
define internal i32 @dissect_openflow_bundle_prop_v6(ptr noundef %0, ptr noundef %1, ptr noundef %2, i32 noundef %3, i16 noundef zeroext %4) #0 {
  %6 = alloca ptr, align 8
  %7 = alloca ptr, align 8
  %8 = alloca ptr, align 8
  %9 = alloca i32, align 4
  %10 = alloca i16, align 2
  %11 = alloca ptr, align 8
  %12 = alloca ptr, align 8
  %13 = alloca ptr, align 8
  %14 = alloca i32, align 4
  %15 = alloca i32, align 4
  store ptr %0, ptr %6, align 8
  store ptr %1, ptr %7, align 8
  store ptr %2, ptr %8, align 8
  store i32 %3, ptr %9, align 4
  store i16 %4, ptr %10, align 2
  call void @llvm.lifetime.start.p0(i64 8, ptr %11) #5
  call void @llvm.lifetime.start.p0(i64 8, ptr %12) #5
  call void @llvm.lifetime.start.p0(i64 8, ptr %13) #5
  call void @llvm.lifetime.start.p0(i64 4, ptr %14) #5
  call void @llvm.lifetime.start.p0(i64 4, ptr %15) #5
  %16 = load ptr, ptr %8, align 8
  %17 = load ptr, ptr %6, align 8
  %18 = load i32, ptr %9, align 4
  %19 = load i32, ptr @ett_openflow_v6_bundle_prop, align 4
  %20 = call ptr @proto_tree_add_subtree(ptr noundef %16, ptr noundef %17, i32 noundef %18, i32 noundef -1, i32 noundef %19, ptr noundef %13, ptr noundef @.str.1647)
  store ptr %20, ptr %11, align 8
  %21 = load ptr, ptr %11, align 8
  %22 = load i32, ptr @hf_openflow_v6_bundle_prop_type, align 4
  %23 = load ptr, ptr %6, align 8
  %24 = load i32, ptr %9, align 4
  %25 = call ptr @proto_tree_add_item_ret_uint(ptr noundef %21, i32 noundef %22, ptr noundef %23, i32 noundef %24, i32 noundef 2, i32 noundef 0, ptr noundef %14)
  %26 = load i32, ptr %9, align 4
  %27 = add i32 %26, 2
  store i32 %27, ptr %9, align 4
  %28 = load ptr, ptr %11, align 8
  %29 = load i32, ptr @hf_openflow_v6_bundle_prop_length, align 4
  %30 = load ptr, ptr %6, align 8
  %31 = load i32, ptr %9, align 4
  %32 = call ptr @proto_tree_add_item_ret_uint(ptr noundef %28, i32 noundef %29, ptr noundef %30, i32 noundef %31, i32 noundef 2, i32 noundef 0, ptr noundef %15)
  store ptr %32, ptr %12, align 8
  %33 = load ptr, ptr %13, align 8
  %34 = load i32, ptr %15, align 4
  call void @proto_item_set_len(ptr noundef %33, i32 noundef %34)
  %35 = load i32, ptr %9, align 4
  %36 = add i32 %35, 2
  store i32 %36, ptr %9, align 4
  %37 = load i32, ptr %14, align 4
  switch i32 %37, label %84 [
    i32 1, label %38
    i32 65535, label %49
  ]

38:                                               ; preds = %5
  %39 = load ptr, ptr %6, align 8
  %40 = load ptr, ptr %7, align 8
  %41 = load ptr, ptr %8, align 8
  %42 = load i32, ptr %9, align 4
  %43 = load i16, ptr %10, align 2
  %44 = call i32 @dissect_openflow_time_v6(ptr noundef %39, ptr noundef %40, ptr noundef %41, i32 noundef %42, i16 noundef zeroext %43)
  %45 = load i32, ptr %15, align 4
  %46 = sub i32 %45, 4
  %47 = load i32, ptr %9, align 4
  %48 = add i32 %47, %46
  store i32 %48, ptr %9, align 4
  br label %105

49:                                               ; preds = %5
  %50 = load i32, ptr %15, align 4
  %51 = icmp ule i32 %50, 12
  br i1 %51, label %52, label %58

52:                                               ; preds = %49
  %53 = load ptr, ptr %7, align 8
  %54 = load ptr, ptr %12, align 8
  %55 = call ptr @expert_add_info(ptr noundef %53, ptr noundef %54, ptr noundef @ei_openflow_v6_length_too_short)
  %56 = load i16, ptr %10, align 2
  %57 = zext i16 %56 to i32
  store i32 %57, ptr %9, align 4
  br label %105

58:                                               ; preds = %49
  %59 = load ptr, ptr %8, align 8
  %60 = load i32, ptr @hf_openflow_v6_bundle_prop_experimenter_experimenter, align 4
  %61 = load ptr, ptr %6, align 8
  %62 = load i32, ptr %9, align 4
  %63 = call ptr @proto_tree_add_item(ptr noundef %59, i32 noundef %60, ptr noundef %61, i32 noundef %62, i32 noundef 4, i32 noundef 0)
  %64 = load i32, ptr %9, align 4
  %65 = add i32 %64, 4
  store i32 %65, ptr %9, align 4
  %66 = load ptr, ptr %8, align 8
  %67 = load i32, ptr @hf_openflow_v6_bundle_prop_experimenter_exp_type, align 4
  %68 = load ptr, ptr %6, align 8
  %69 = load i32, ptr %9, align 4
  %70 = call ptr @proto_tree_add_item(ptr noundef %66, i32 noundef %67, ptr noundef %68, i32 noundef %69, i32 noundef 4, i32 noundef 0)
  %71 = load i32, ptr %9, align 4
  %72 = add i32 %71, 4
  store i32 %72, ptr %9, align 4
  %73 = load ptr, ptr %8, align 8
  %74 = load ptr, ptr %7, align 8
  %75 = load ptr, ptr %6, align 8
  %76 = load i32, ptr %9, align 4
  %77 = load i32, ptr %15, align 4
  %78 = sub i32 %77, 12
  %79 = call ptr (ptr, ptr, ptr, ptr, i32, i32, ptr, ...) @proto_tree_add_expert_format(ptr noundef %73, ptr noundef %74, ptr noundef @ei_openflow_v6_bundle_prop_undecoded, ptr noundef %75, i32 noundef %76, i32 noundef %78, ptr noundef @.str.1648)
  %80 = load i32, ptr %15, align 4
  %81 = sub i32 %80, 12
  %82 = load i32, ptr %9, align 4
  %83 = add i32 %82, %81
  store i32 %83, ptr %9, align 4
  br label %105

84:                                               ; preds = %5
  %85 = load i32, ptr %15, align 4
  %86 = icmp ule i32 %85, 4
  br i1 %86, label %87, label %93

87:                                               ; preds = %84
  %88 = load ptr, ptr %7, align 8
  %89 = load ptr, ptr %12, align 8
  %90 = call ptr @expert_add_info(ptr noundef %88, ptr noundef %89, ptr noundef @ei_openflow_v6_length_too_short)
  %91 = load i16, ptr %10, align 2
  %92 = zext i16 %91 to i32
  store i32 %92, ptr %9, align 4
  br label %105

93:                                               ; preds = %84
  %94 = load ptr, ptr %8, align 8
  %95 = load ptr, ptr %7, align 8
  %96 = load ptr, ptr %6, align 8
  %97 = load i32, ptr %9, align 4
  %98 = load i32, ptr %15, align 4
  %99 = sub i32 %98, 4
  %100 = call ptr (ptr, ptr, ptr, ptr, i32, i32, ptr, ...) @proto_tree_add_expert_format(ptr noundef %94, ptr noundef %95, ptr noundef @ei_openflow_v6_bundle_prop_undecoded, ptr noundef %96, i32 noundef %97, i32 noundef %99, ptr noundef @.str.1067)
  %101 = load i32, ptr %15, align 4
  %102 = sub i32 %101, 4
  %103 = load i32, ptr %9, align 4
  %104 = add i32 %103, %102
  store i32 %104, ptr %9, align 4
  br label %105

105:                                              ; preds = %93, %87, %58, %52, %38
  %106 = load i32, ptr %9, align 4
  call void @llvm.lifetime.end.p0(i64 4, ptr %15) #5
  call void @llvm.lifetime.end.p0(i64 4, ptr %14) #5
  call void @llvm.lifetime.end.p0(i64 8, ptr %13) #5
  call void @llvm.lifetime.end.p0(i64 8, ptr %12) #5
  call void @llvm.lifetime.end.p0(i64 8, ptr %11) #5
  ret i32 %106
}