; Function Attrs: null_pointer_is_valid sspstrong uwtable
define internal fastcc i32 @dissect_openflow_bundle_prop_v6(ptr noundef %0, ptr noundef %1, ptr noundef %2, i32 noundef range(i32 -2147483648, 65535) %3, i16 noundef zeroext %4) unnamed_addr #0 {
  %6 = alloca ptr, align 8
  %7 = alloca i32, align 4
  %8 = alloca i32, align 4
  call void @llvm.lifetime.start.p0(i64 8, ptr nonnull %6) #4
  call void @llvm.lifetime.start.p0(i64 4, ptr nonnull %7) #4
  call void @llvm.lifetime.start.p0(i64 4, ptr nonnull %8) #4
  %9 = load i32, ptr @ett_openflow_v6_bundle_prop, align 4
  %10 = call ptr @proto_tree_add_subtree(ptr noundef %2, ptr noundef %0, i32 noundef %3, i32 noundef -1, i32 noundef %9, ptr noundef nonnull %6, ptr noundef nonnull @.str.1647)
  %11 = load i32, ptr @hf_openflow_v6_bundle_prop_type, align 4
  %12 = call ptr @proto_tree_add_item_ret_uint(ptr noundef %10, i32 noundef %11, ptr noundef %0, i32 noundef %3, i32 noundef 2, i32 noundef 0, ptr noundef nonnull %7)
  %13 = add nsw i32 %3, 2
  %14 = load i32, ptr @hf_openflow_v6_bundle_prop_length, align 4
  %15 = call ptr @proto_tree_add_item_ret_uint(ptr noundef %10, i32 noundef %14, ptr noundef %0, i32 noundef %13, i32 noundef 2, i32 noundef 0, ptr noundef nonnull %8)
  %16 = load ptr, ptr %6, align 8
  %17 = load i32, ptr %8, align 4
  call void @proto_item_set_len(ptr noundef %16, i32 noundef %17)
  %18 = add nsw i32 %3, 4
  %19 = load i32, ptr %7, align 4
  switch i32 %19, label %49 [
    i32 1, label %20
    i32 65535, label %31
  ]

20:                                               ; preds = %5
  %21 = load i32, ptr @hf_openflow_v6_time_seconds, align 4
  %22 = call ptr @proto_tree_add_item(ptr noundef %2, i32 noundef %21, ptr noundef %0, i32 noundef %18, i32 noundef 8, i32 noundef 0)
  %23 = add nsw i32 %3, 12
  %24 = load i32, ptr @hf_openflow_v6_time_nanoseconds, align 4
  %25 = call ptr @proto_tree_add_item(ptr noundef %2, i32 noundef %24, ptr noundef %0, i32 noundef %23, i32 noundef 4, i32 noundef 0)
  %26 = add nsw i32 %3, 16
  %27 = load i32, ptr @hf_openflow_v6_time_pad, align 4
  %28 = call ptr @proto_tree_add_item(ptr noundef %2, i32 noundef %27, ptr noundef %0, i32 noundef %26, i32 noundef 4, i32 noundef 0)
  %29 = load i32, ptr %8, align 4
  %30 = add i32 %29, %3
  br label %60

31:                                               ; preds = %5
  %32 = load i32, ptr %8, align 4
  %33 = icmp ult i32 %32, 13
  br i1 %33, label %34, label %37

34:                                               ; preds = %31
  %35 = call ptr @expert_add_info(ptr noundef %1, ptr noundef %15, ptr noundef nonnull @ei_openflow_v6_length_too_short)
  %36 = zext i16 %4 to i32
  br label %60

37:                                               ; preds = %31
  %38 = load i32, ptr @hf_openflow_v6_bundle_prop_experimenter_experimenter, align 4
  %39 = call ptr @proto_tree_add_item(ptr noundef %2, i32 noundef %38, ptr noundef %0, i32 noundef %18, i32 noundef 4, i32 noundef 0)
  %40 = add nsw i32 %3, 8
  %41 = load i32, ptr @hf_openflow_v6_bundle_prop_experimenter_exp_type, align 4
  %42 = call ptr @proto_tree_add_item(ptr noundef %2, i32 noundef %41, ptr noundef %0, i32 noundef %40, i32 noundef 4, i32 noundef 0)
  %43 = add nsw i32 %3, 12
  %44 = load i32, ptr %8, align 4
  %45 = add i32 %44, -12
  %46 = call ptr (ptr, ptr, ptr, ptr, i32, i32, ptr, ...) @proto_tree_add_expert_format(ptr noundef %2, ptr noundef %1, ptr noundef nonnull @ei_openflow_v6_bundle_prop_undecoded, ptr noundef %0, i32 noundef %43, i32 noundef %45, ptr noundef nonnull @.str.1648)
  %47 = load i32, ptr %8, align 4
  %48 = add i32 %47, %3
  br label %60

49:                                               ; preds = %5
  %50 = load i32, ptr %8, align 4
  %51 = icmp ult i32 %50, 5
  br i1 %51, label %52, label %55

52:                                               ; preds = %49
  %53 = call ptr @expert_add_info(ptr noundef %1, ptr noundef %15, ptr noundef nonnull @ei_openflow_v6_length_too_short)
  %54 = zext i16 %4 to i32
  br label %60

55:                                               ; preds = %49
  %56 = add i32 %50, -4
  %57 = call ptr (ptr, ptr, ptr, ptr, i32, i32, ptr, ...) @proto_tree_add_expert_format(ptr noundef %2, ptr noundef %1, ptr noundef nonnull @ei_openflow_v6_bundle_prop_undecoded, ptr noundef %0, i32 noundef %18, i32 noundef %56, ptr noundef nonnull @.str.1067)
  %58 = load i32, ptr %8, align 4
  %59 = add i32 %58, %3
  br label %60

60:                                               ; preds = %55, %52, %37, %34, %20
  %.0 = phi i32 [ %54, %52 ], [ %59, %55 ], [ %36, %34 ], [ %48, %37 ], [ %30, %20 ]
  call void @llvm.lifetime.end.p0(i64 4, ptr nonnull %8) #4
  call void @llvm.lifetime.end.p0(i64 4, ptr nonnull %7) #4
  call void @llvm.lifetime.end.p0(i64 8, ptr nonnull %6) #4
  ret i32 %.0
}